; Function Attrs: null_pointer_is_valid sspstrong uwtable
define internal void @dissect_pfcp_reporting_triggers(ptr noundef %0, ptr noundef %1, ptr noundef %2, ptr readnone captures(none) %3, i16 noundef zeroext %4, i8 zeroext %5, ptr readnone captures(none) %6) #0 {
  tail call void @proto_tree_add_bitmask_list(ptr noundef %2, ptr noundef %0, i32 noundef 0, i32 noundef 1, ptr noundef nonnull @dissect_pfcp_reporting_triggers.pfcp_reporting_triggers_o5_flags, i32 noundef 0)
  %8 = icmp eq i16 %4, 1
  br i1 %8, label %14, label %9

9:                                                ; preds = %7
  tail call void @proto_tree_add_bitmask_list(ptr noundef %2, ptr noundef %0, i32 noundef 1, i32 noundef 1, ptr noundef nonnull @dissect_pfcp_reporting_triggers.pfcp_reporting_triggers_o6_flags, i32 noundef 0)
  %10 = icmp eq i16 %4, 2
  br i1 %10, label %14, label %11

11:                                               ; preds = %9
  tail call void @proto_tree_add_bitmask_list(ptr noundef %2, ptr noundef %0, i32 noundef 2, i32 noundef 1, ptr noundef nonnull @dissect_pfcp_reporting_triggers.pfcp_reporting_triggers_o7_flags, i32 noundef 0)
  switch i16 %4, label %12 [
    i16 3, label %14
    i16 0, label %14
  ]

12:                                               ; preds = %11
  %13 = tail call ptr @proto_tree_add_expert(ptr noundef %2, ptr noundef %1, ptr noundef nonnull @ei_pfcp_ie_data_not_decoded, ptr noundef %0, i32 noundef 3, i32 noundef -1)
  br label %14

14:                                               ; preds = %11, %11, %12, %9, %7
  ret void
}